target datalayout = "e-m:e-p270:32:32-p271:32:32-p272:64:64-i64:64-i128:128-f80:128-n8:16:32:64-S128"
target triple = "x86_64-pc-linux-gnu"

%struct.FunctionCallInfoBaseData = type { ptr, ptr, ptr, i32, i8, i16, [0 x %struct.NullableDatum] }
%struct.NullableDatum = type { i64, i8 }
%struct.varattrib_1b = type { i8, [0 x i8] }
%struct.anon = type { i32, [0 x i8] }
%struct.inet_struct = type { i8, i8, [16 x i8] }
%struct.varattrib_1b_e = type { i8, i8, [0 x i8] }

@.str.1 = private unnamed_addr constant [10 x i8] c"network.c\00", align 1
@.str.2 = private unnamed_addr constant [24 x i8] c"invalid mask length: %d\00", align 1
@__func__.inet_set_masklen = private unnamed_addr constant [17 x i8] c"inet_set_masklen\00", align 1

; Function Attrs: inlinehint nounwind uwtable
define internal i64 @PointerGetDatum(ptr noundef %0) #2 {
  %2 = alloca ptr, align 8
  store ptr %0, ptr %2, align 8
  %3 = load ptr, ptr %2, align 8
  %4 = ptrtoint ptr %3 to i64
  ret i64 %4
}

; Function Attrs: inlinehint nounwind uwtable
define internal ptr @DatumGetPointer(i64 noundef %0) #2 {
  %2 = alloca i64, align 8
  store i64 %0, ptr %2, align 8
  %3 = load i64, ptr %2, align 8
  %4 = inttoptr i64 %3 to ptr
  ret ptr %4
}

; Function Attrs: inlinehint nounwind uwtable
define internal i64 @InetPGetDatum(ptr noundef %0) #2 {
  %2 = alloca ptr, align 8
  store ptr %0, ptr %2, align 8
  %3 = load ptr, ptr %2, align 8
  %4 = call i64 @PointerGetDatum(ptr noundef %3)
  ret i64 %4
}

; Function Attrs: inlinehint nounwind uwtable
define internal i32 @DatumGetInt32(i64 noundef %0) #2 {
  %2 = alloca i64, align 8
  store i64 %0, ptr %2, align 8
  %3 = load i64, ptr %2, align 8
  %4 = trunc i64 %3 to i32
  ret i32 %4
}

; Function Attrs: inlinehint nounwind uwtable
define internal ptr @DatumGetInetPP(i64 noundef %0) #2 {
  %2 = alloca i64, align 8
  store i64 %0, ptr %2, align 8
  %3 = load i64, ptr %2, align 8
  %4 = call ptr @DatumGetPointer(i64 noundef %3)
  %5 = call ptr @pg_detoast_datum_packed(ptr noundef %4)
  ret ptr %5
}

; Function Attrs: nounwind uwtable
define dso_local i64 @inet_set_masklen(ptr noundef %0) #0 {
  %2 = alloca ptr, align 8
  %3 = alloca ptr, align 8
  %4 = alloca i32, align 4
  %5 = alloca ptr, align 8
  store ptr %0, ptr %2, align 8
  call void @llvm.lifetime.start.p0(i64 8, ptr %3) #8
  %6 = load ptr, ptr %2, align 8
  %7 = getelementptr inbounds nuw %struct.FunctionCallInfoBaseData, ptr %6, i32 0, i32 6
  %8 = getelementptr inbounds [0 x %struct.NullableDatum], ptr %7, i64 0, i64 0
  %9 = getelementptr inbounds nuw %struct.NullableDatum, ptr %8, i32 0, i32 0
  %10 = load i64, ptr %9, align 8
  %11 = call ptr @DatumGetInetPP(i64 noundef %10)
  store ptr %11, ptr %3, align 8
  call void @llvm.lifetime.start.p0(i64 4, ptr %4) #8
  %12 = load ptr, ptr %2, align 8
  %13 = getelementptr inbounds nuw %struct.FunctionCallInfoBaseData, ptr %12, i32 0, i32 6
  %14 = getelementptr inbounds [0 x %struct.NullableDatum], ptr %13, i64 0, i64 1
  %15 = getelementptr inbounds nuw %struct.NullableDatum, ptr %14, i32 0, i32 0
  %16 = load i64, ptr %15, align 8
  %17 = call i32 @DatumGetInt32(i64 noundef %16)
  store i32 %17, ptr %4, align 4
  call void @llvm.lifetime.start.p0(i64 8, ptr %5) #8
  %18 = load i32, ptr %4, align 4
  %19 = icmp eq i32 %18, -1
  br i1 %19, label %20, label %42

20:                                               ; preds = %1
  %21 = load ptr, ptr %3, align 8
  %22 = getelementptr inbounds nuw %struct.varattrib_1b, ptr %21, i32 0, i32 0
  %23 = load i8, ptr %22, align 1
  %24 = zext i8 %23 to i32
  %25 = and i32 %24, 1
  %26 = icmp eq i32 %25, 1
  br i1 %26, label %27, label %31

27:                                               ; preds = %20
  %28 = load ptr, ptr %3, align 8
  %29 = getelementptr inbounds nuw %struct.varattrib_1b, ptr %28, i32 0, i32 1
  %30 = getelementptr inbounds [0 x i8], ptr %29, i64 0, i64 0
  br label %35

31:                                               ; preds = %20
  %32 = load ptr, ptr %3, align 8
  %33 = getelementptr inbounds nuw %struct.anon, ptr %32, i32 0, i32 1
  %34 = getelementptr inbounds [0 x i8], ptr %33, i64 0, i64 0
  br label %35

35:                                               ; preds = %31, %27
  %36 = phi ptr [ %30, %27 ], [ %34, %31 ]
  %37 = getelementptr inbounds nuw %struct.inet_struct, ptr %36, i32 0, i32 0
  %38 = load i8, ptr %37, align 1
  %39 = zext i8 %38 to i32
  %40 = icmp eq i32 %39, 2
  %41 = select i1 %40, i32 32, i32 128
  store i32 %41, ptr %4, align 4
  br label %42

42:                                               ; preds = %35, %1
  %43 = load i32, ptr %4, align 4
  %44 = icmp slt i32 %43, 0
  br i1 %44, label %69, label %45

45:                                               ; preds = %42
  %46 = load i32, ptr %4, align 4
  %47 = load ptr, ptr %3, align 8
  %48 = getelementptr inbounds nuw %struct.varattrib_1b, ptr %47, i32 0, i32 0
  %49 = load i8, ptr %48, align 1
  %50 = zext i8 %49 to i32
  %51 = and i32 %50, 1
  %52 = icmp eq i32 %51, 1
  br i1 %52, label %53, label %57

53:                                               ; preds = %45
  %54 = load ptr, ptr %3, align 8
  %55 = getelementptr inbounds nuw %struct.varattrib_1b, ptr %54, i32 0, i32 1
  %56 = getelementptr inbounds [0 x i8], ptr %55, i64 0, i64 0
  br label %61

57:                                               ; preds = %45
  %58 = load ptr, ptr %3, align 8
  %59 = getelementptr inbounds nuw %struct.anon, ptr %58, i32 0, i32 1
  %60 = getelementptr inbounds [0 x i8], ptr %59, i64 0, i64 0
  br label %61

61:                                               ; preds = %57, %53
  %62 = phi ptr [ %56, %53 ], [ %60, %57 ]
  %63 = getelementptr inbounds nuw %struct.inet_struct, ptr %62, i32 0, i32 0
  %64 = load i8, ptr %63, align 1
  %65 = zext i8 %64 to i32
  %66 = icmp eq i32 %65, 2
  %67 = select i1 %66, i32 32, i32 128
  %68 = icmp sgt i32 %46, %67
  br i1 %68, label %69, label %82

69:                                               ; preds = %61, %42
  br label %70

70:                                               ; preds = %69
  br i1 true, label %71, label %73

71:                                               ; preds = %70
  %72 = call zeroext i1 @errstart_cold(i32 noundef 21, ptr noundef null) #10
  br i1 %72, label %75, label %79

73:                                               ; preds = %70
  %74 = call zeroext i1 @errstart(i32 noundef 21, ptr noundef null)
  br i1 %74, label %75, label %79

75:                                               ; preds = %73, %71
  %76 = call i32 @errcode(i32 noundef 50856066)
  %77 = load i32, ptr %4, align 4
  %78 = call i32 (ptr, ...) @errmsg(ptr noundef @.str.2, i32 noundef %77)
  call void @errfinish(ptr noundef @.str.1, i32 noundef 336, ptr noundef @__func__.inet_set_masklen)
  br label %79

79:                                               ; preds = %75, %73, %71
  unreachable

80:                                               ; No predecessors!
  br label %81

81:                                               ; preds = %80
  br label %82

82:                                               ; preds = %81, %61
  %83 = load ptr, ptr %3, align 8
  %84 = getelementptr inbounds nuw %struct.varattrib_1b, ptr %83, i32 0, i32 0
  %85 = load i8, ptr %84, align 1
  %86 = zext i8 %85 to i32
  %87 = icmp eq i32 %86, 1
  br i1 %87, label %88, label %115

88:                                               ; preds = %82
  %89 = load ptr, ptr %3, align 8
  %90 = getelementptr inbounds nuw %struct.varattrib_1b_e, ptr %89, i32 0, i32 1
  %91 = load i8, ptr %90, align 1
  %92 = zext i8 %91 to i32
  %93 = icmp eq i32 %92, 1
  br i1 %93, label %94, label %95

94:                                               ; preds = %88
  br label %112

95:                                               ; preds = %88
  %96 = load ptr, ptr %3, align 8
  %97 = getelementptr inbounds nuw %struct.varattrib_1b_e, ptr %96, i32 0, i32 1
  %98 = load i8, ptr %97, align 1
  %99 = zext i8 %98 to i32
  %100 = and i32 %99, -2
  %101 = icmp eq i32 %100, 2
  br i1 %101, label %102, label %103

102:                                              ; preds = %95
  br label %110

103:                                              ; preds = %95
  %104 = load ptr, ptr %3, align 8
  %105 = getelementptr inbounds nuw %struct.varattrib_1b_e, ptr %104, i32 0, i32 1
  %106 = load i8, ptr %105, align 1
  %107 = zext i8 %106 to i32
  %108 = icmp eq i32 %107, 18
  %109 = select i1 %108, i64 16, i64 0
  br label %110

110:                                              ; preds = %103, %102
  %111 = phi i64 [ 8, %102 ], [ %109, %103 ]
  br label %112

112:                                              ; preds = %110, %94
  %113 = phi i64 [ 8, %94 ], [ %111, %110 ]
  %114 = add i64 2, %113
  br label %138

115:                                              ; preds = %82
  %116 = load ptr, ptr %3, align 8
  %117 = getelementptr inbounds nuw %struct.varattrib_1b, ptr %116, i32 0, i32 0
  %118 = load i8, ptr %117, align 1
  %119 = zext i8 %118 to i32
  %120 = and i32 %119, 1
  %121 = icmp eq i32 %120, 1
  br i1 %121, label %122, label %129

122:                                              ; preds = %115
  %123 = load ptr, ptr %3, align 8
  %124 = getelementptr inbounds nuw %struct.varattrib_1b, ptr %123, i32 0, i32 0
  %125 = load i8, ptr %124, align 1
  %126 = zext i8 %125 to i32
  %127 = ashr i32 %126, 1
  %128 = and i32 %127, 127
  br label %135

129:                                              ; preds = %115
  %130 = load ptr, ptr %3, align 8
  %131 = getelementptr inbounds nuw %struct.anon, ptr %130, i32 0, i32 0
  %132 = load i32, ptr %131, align 4
  %133 = lshr i32 %132, 2
  %134 = and i32 %133, 1073741823
  br label %135

135:                                              ; preds = %129, %122
  %136 = phi i32 [ %128, %122 ], [ %134, %129 ]
  %137 = zext i32 %136 to i64
  br label %138

138:                                              ; preds = %135, %112
  %139 = phi i64 [ %114, %112 ], [ %137, %135 ]
  %140 = call ptr @palloc(i64 noundef %139)
  store ptr %140, ptr %5, align 8
  %141 = load ptr, ptr %5, align 8
  %142 = load ptr, ptr %3, align 8
  %143 = load ptr, ptr %3, align 8
  %144 = getelementptr inbounds nuw %struct.varattrib_1b, ptr %143, i32 0, i32 0
  %145 = load i8, ptr %144, align 1
  %146 = zext i8 %145 to i32
  %147 = icmp eq i32 %146, 1
  br i1 %147, label %148, label %175

148:                                              ; preds = %138
  %149 = load ptr, ptr %3, align 8
  %150 = getelementptr inbounds nuw %struct.varattrib_1b_e, ptr %149, i32 0, i32 1
  %151 = load i8, ptr %150, align 1
  %152 = zext i8 %151 to i32
  %153 = icmp eq i32 %152, 1
  br i1 %153, label %154, label %155

154:                                              ; preds = %148
  br label %172

155:                                              ; preds = %148
  %156 = load ptr, ptr %3, align 8
  %157 = getelementptr inbounds nuw %struct.varattrib_1b_e, ptr %156, i32 0, i32 1
  %158 = load i8, ptr %157, align 1
  %159 = zext i8 %158 to i32
  %160 = and i32 %159, -2
  %161 = icmp eq i32 %160, 2
  br i1 %161, label %162, label %163

162:                                              ; preds = %155
  br label %170

163:                                              ; preds = %155
  %164 = load ptr, ptr %3, align 8
  %165 = getelementptr inbounds nuw %struct.varattrib_1b_e, ptr %164, i32 0, i32 1
  %166 = load i8, ptr %165, align 1
  %167 = zext i8 %166 to i32
  %168 = icmp eq i32 %167, 18
  %169 = select i1 %168, i64 16, i64 0
  br label %170

170:                                              ; preds = %163, %162
  %171 = phi i64 [ 8, %162 ], [ %169, %163 ]
  br label %172

172:                                              ; preds = %170, %154
  %173 = phi i64 [ 8, %154 ], [ %171, %170 ]
  %174 = add i64 2, %173
  br label %198

175:                                              ; preds = %138
  %176 = load ptr, ptr %3, align 8
  %177 = getelementptr inbounds nuw %struct.varattrib_1b, ptr %176, i32 0, i32 0
  %178 = load i8, ptr %177, align 1
  %179 = zext i8 %178 to i32
  %180 = and i32 %179, 1
  %181 = icmp eq i32 %180, 1
  br i1 %181, label %182, label %189

182:                                              ; preds = %175
  %183 = load ptr, ptr %3, align 8
  %184 = getelementptr inbounds nuw %struct.varattrib_1b, ptr %183, i32 0, i32 0
  %185 = load i8, ptr %184, align 1
  %186 = zext i8 %185 to i32
  %187 = ashr i32 %186, 1
  %188 = and i32 %187, 127
  br label %195

189:                                              ; preds = %175
  %190 = load ptr, ptr %3, align 8
  %191 = getelementptr inbounds nuw %struct.anon, ptr %190, i32 0, i32 0
  %192 = load i32, ptr %191, align 4
  %193 = lshr i32 %192, 2
  %194 = and i32 %193, 1073741823
  br label %195

195:                                              ; preds = %189, %182
  %196 = phi i32 [ %188, %182 ], [ %194, %189 ]
  %197 = zext i32 %196 to i64
  br label %198

198:                                              ; preds = %195, %172
  %199 = phi i64 [ %174, %172 ], [ %197, %195 ]
  call void @llvm.memcpy.p0.p0.i64(ptr align 1 %141, ptr align 1 %142, i64 %199, i1 false)
  %200 = load i32, ptr %4, align 4
  %201 = trunc i32 %200 to i8
  %202 = load ptr, ptr %5, align 8
  %203 = getelementptr inbounds nuw %struct.varattrib_1b, ptr %202, i32 0, i32 0
  %204 = load i8, ptr %203, align 1
  %205 = zext i8 %204 to i32
  %206 = and i32 %205, 1
  %207 = icmp eq i32 %206, 1
  br i1 %207, label %208, label %212

208:                                              ; preds = %198
  %209 = load ptr, ptr %5, align 8
  %210 = getelementptr inbounds nuw %struct.varattrib_1b, ptr %209, i32 0, i32 1
  %211 = getelementptr inbounds [0 x i8], ptr %210, i64 0, i64 0
  br label %216

212:                                              ; preds = %198
  %213 = load ptr, ptr %5, align 8
  %214 = getelementptr inbounds nuw %struct.anon, ptr %213, i32 0, i32 1
  %215 = getelementptr inbounds [0 x i8], ptr %214, i64 0, i64 0
  br label %216

216:                                              ; preds = %212, %208
  %217 = phi ptr [ %211, %208 ], [ %215, %212 ]
  %218 = getelementptr inbounds nuw %struct.inet_struct, ptr %217, i32 0, i32 1
  store i8 %201, ptr %218, align 1
  %219 = load ptr, ptr %5, align 8
  %220 = call i64 @InetPGetDatum(ptr noundef %219)
  call void @llvm.lifetime.end.p0(i64 8, ptr %5) #8
  call void @llvm.lifetime.end.p0(i64 4, ptr %4) #8
  call void @llvm.lifetime.end.p0(i64 8, ptr %3) #8
  ret i64 %220
}