; Function Attrs: nounwind uwtable
define dso_local i64 @inet_set_masklen(ptr noundef readonly captures(none) %0) #0 {
  %2 = getelementptr inbounds nuw i8, ptr %0, i64 32
  %3 = load i64, ptr %2, align 8
  %4 = inttoptr i64 %3 to ptr
  %5 = tail call ptr @pg_detoast_datum_packed(ptr noundef %4) #14
  %6 = getelementptr inbounds nuw i8, ptr %0, i64 48
  %7 = load i64, ptr %6, align 8
  %8 = trunc i64 %7 to i32
  %9 = icmp eq i32 %8, -1
  br i1 %9, label %.thread, label %16

.thread:                                          ; preds = %1
  %10 = load i8, ptr %5, align 1
  %11 = and i8 %10, 1
  %.not = icmp eq i8 %11, 0
  %.v = select i1 %.not, i64 4, i64 1
  %12 = getelementptr inbounds nuw i8, ptr %5, i64 %.v
  %13 = load i8, ptr %12, align 1
  %14 = icmp eq i8 %13, 2
  %15 = select i1 %14, i32 32, i32 128
  br label %18

16:                                               ; preds = %1
  %17 = icmp slt i32 %8, 0
  br i1 %17, label %29, label %._crit_edge

._crit_edge:                                      ; preds = %16
  %.pre = load i8, ptr %5, align 1
  br label %18

18:                                               ; preds = %._crit_edge, %.thread
  %19 = phi i8 [ %10, %.thread ], [ %.pre, %._crit_edge ]
  %.045 = phi i32 [ %15, %.thread ], [ %8, %._crit_edge ]
  %20 = zext i8 %19 to i32
  %21 = and i32 %20, 1
  %.not37 = icmp eq i32 %21, 0
  %22 = getelementptr inbounds nuw i8, ptr %5, i64 1
  %23 = getelementptr inbounds nuw i8, ptr %5, i64 4
  %24 = select i1 %.not37, ptr %23, ptr %22
  %25 = load i8, ptr %24, align 1
  %26 = icmp eq i8 %25, 2
  %27 = select i1 %26, i32 32, i32 128
  %28 = icmp samesign ugt i32 %.045, %27
  br i1 %28, label %29, label %33

29:                                               ; preds = %18, %16
  %.046 = phi i32 [ %.045, %18 ], [ %8, %16 ]
  %30 = tail call zeroext i1 @errstart_cold(i32 noundef 21, ptr noundef null) #16
  tail call void @llvm.assume(i1 %30)
  %31 = tail call i32 @errcode(i32 noundef 50856066) #14
  %32 = tail call i32 (ptr, ...) @errmsg(ptr noundef nonnull @.str.2, i32 noundef %.046) #14
  tail call void @errfinish(ptr noundef nonnull @.str.1, i32 noundef 336, ptr noundef nonnull @__func__.inet_set_masklen) #14
  unreachable

33:                                               ; preds = %18
  %34 = icmp eq i8 %19, 1
  br i1 %34, label %35, label %43

35:                                               ; preds = %33
  %36 = load i8, ptr %22, align 1
  %37 = icmp eq i8 %36, 1
  %38 = and i8 %36, -2
  %39 = icmp eq i8 %38, 2
  %or.cond = or i1 %37, %39
  %40 = icmp eq i8 %36, 18
  %41 = select i1 %40, i64 18, i64 2
  %42 = select i1 %or.cond, i64 10, i64 %41
  br label %52

43:                                               ; preds = %33
  br i1 %.not37, label %46, label %44

44:                                               ; preds = %43
  %45 = lshr i32 %20, 1
  br label %49

46:                                               ; preds = %43
  %47 = load i32, ptr %5, align 4
  %48 = lshr i32 %47, 2
  br label %49

49:                                               ; preds = %46, %44
  %50 = phi i32 [ %45, %44 ], [ %48, %46 ]
  %51 = zext nneg i32 %50 to i64
  br label %52

52:                                               ; preds = %49, %35
  %53 = phi i64 [ %42, %35 ], [ %51, %49 ]
  %54 = tail call ptr @palloc(i64 noundef %53) #14
  %55 = load i8, ptr %5, align 1
  %56 = zext i8 %55 to i32
  %57 = icmp eq i8 %55, 1
  br i1 %57, label %58, label %66

58:                                               ; preds = %52
  %59 = load i8, ptr %22, align 1
  %60 = icmp eq i8 %59, 1
  %61 = and i8 %59, -2
  %62 = icmp eq i8 %61, 2
  %or.cond43 = or i1 %60, %62
  %63 = icmp eq i8 %59, 18
  %64 = select i1 %63, i64 18, i64 2
  %65 = select i1 %or.cond43, i64 10, i64 %64
  br label %76

66:                                               ; preds = %52
  %67 = and i32 %56, 1
  %.not38 = icmp eq i32 %67, 0
  br i1 %.not38, label %70, label %68

68:                                               ; preds = %66
  %69 = lshr i32 %56, 1
  br label %73

70:                                               ; preds = %66
  %71 = load i32, ptr %5, align 4
  %72 = lshr i32 %71, 2
  br label %73

73:                                               ; preds = %70, %68
  %74 = phi i32 [ %69, %68 ], [ %72, %70 ]
  %75 = zext nneg i32 %74 to i64
  br label %76

76:                                               ; preds = %73, %58
  %77 = phi i64 [ %65, %58 ], [ %75, %73 ]
  tail call void @llvm.memcpy.p0.p0.i64(ptr align 1 %54, ptr nonnull align 1 %5, i64 %77, i1 false)
  %78 = trunc nuw i32 %.045 to i8
  %79 = load i8, ptr %54, align 1
  %80 = and i8 %79, 1
  %.not39 = icmp eq i8 %80, 0
  %.v40 = select i1 %.not39, i64 4, i64 1
  %81 = getelementptr inbounds nuw i8, ptr %54, i64 %.v40
  %82 = getelementptr inbounds nuw i8, ptr %81, i64 1
  store i8 %78, ptr %82, align 1
  %83 = ptrtoint ptr %54 to i64
  ret i64 %83
}